Certificate:
    Data:
        Version: 3 (0x2)
        Serial Number: 3 (0x3)
    Signature Algorithm: sha1WithRSAEncryption
        Issuer: CN=DOMAINNEVERUSED Internal Root Certificate Authority, ST=ON, C=CA/emailAddress=hostmaster@domainneverused.net, O=domainneverused
        Validity
            Not Before: Oct 27 19:52:26 2015 GMT
            Not After : Oct 25 19:52:26 2020 GMT
        Subject: CN=imap.domainneverused.net, ST=ON, C=CA/emailAddress=hostmaster@domainneverused.net, O=domainneverused, OU=IT Department
        Subject Public Key Info:
            Public Key Algorithm: rsaEncryption
                Public-Key: (1024 bit)
                Modulus:
                    00:bb:a4:6f:37:37:96:16:ad:7f:38:e9:35:e4:f3:
                    63:df:e0:41:f0:74:5d:f6:e3:4e:4e:e1:68:dc:26:
                    df:8c:0d:e4:18:10:f3:fa:0c:e7:4b:eb:e8:46:31:
                    69:bd:83:48:75:0d:9c:41:4c:70:22:24:d0:73:f3:
                    3c:9c:cc:69:bd:d2:df:08:ef:a5:bb:fe:8c:7b:fe:
                    7e:d8:d5:a5:33:5f:f5:29:d5:da:7e:54:e9:e5:21:
                    b3:88:d2:63:db:bf:da:3f:57:49:f3:4d:f6:b3:bc:
                    35:01:d0:fc:51:b4:14:1b:45:88:f5:dd:fd:04:bd:
                    29:76:01:c5:88:6c:3e:1d:83
                Exponent: 65537 (0x10001)
        X509v3 extensions:
            X509v3 Basic Constraints: 
                CA:FALSE
            Netscape Cert Type: 
                SSL Server
    Signature Algorithm: sha1WithRSAEncryption
         38:37:bc:00:fe:a8:aa:bd:c4:8f:1a:f6:15:6c:c8:e9:0e:ff:
         da:2d:82:58:54:2a:0c:52:76:b5:ed:16:6e:3b:ab:4a:f2:8b:
         f9:da:bf:ec:8f:f9:91:b4:85:19:c7:74:0f:1d:42:02:e9:11:
         ee:a1:3e:fa:cf:87:0c:aa:26:f9:8c:98:29:71:31:20:4e:78:
         18:5d:de:ba:c2:d1:7b:2f:ff:6a:68:6d:71:a1:62:18:a5:2a:
         45:6b:b0:dc:cf:be:a0:19:5a:ab:b5:77:52:49:a3:2b:6d:ea:
         40:c4:6f:3f:c9:c0:9a:b4:15:44:5a:54:9e:ca:04:ac:5d:bb:
         d2:55:c5:11:2d:7d:4b:d1:8c:37:66:d8:24:7b:07:88:d7:bd:
         9a:f5:63:5d:fa:09:8a:58:b3:d3:25:96:52:f6:d6:27:93:04:
         d7:20:73:12:f6:3b:c2:af:d2:2f:82:a3:fc:b7:50:7a:10:e9:
         65:37:54:92:0b:f2:c2:33:7d:c0:02:55:d2:78:ab:59:8a:d6:
         28:e9:32:db:e4:83:f8:a6:58:06:1c:fc:57:de:6a:7a:b9:16:
         09:9f:40:7e:b4:ee:99:fa:ad:1e:9e:75:c2:7a:89:24:d9:c9:
         8b:39:d5:13:21:bd:b2:d9:48:e2:a8:de:77:22:fd:20:1b:96:
         13:3e:87:76
-----BEGIN CERTIFICATE-----
MIIDWDCCAkCgAwIBAgIBAzANBgkqhkiG9w0BAQUFADCBoTE8MDoGA1UEAxMzRE9N
QUlOTkVWRVJVU0VEIEludGVybmFsIFJvb3QgQ2VydGlmaWNhdGUgQXV0aG9yaXR5
MQswCQYDVQQIEwJPTjELMAkGA1UEBhMCQ0ExLTArBgkqhkiG9w0BCQEWHmhvc3Rt
YXN0ZXJAZG9tYWlubmV2ZXJ1c2VkLm5ldDEYMBYGA1UEChMPZG9tYWlubmV2ZXJ1
c2VkMB4XDTE1MTAyNzE5NTIyNloXDTIwMTAyNTE5NTIyNlowgZ4xITAfBgNVBAMT
GGltYXAuZG9tYWlubmV2ZXJ1c2VkLm5ldDELMAkGA1UECBMCT04xCzAJBgNVBAYT
AkNBMS0wKwYJKoZIhvcNAQkBFh5ob3N0bWFzdGVyQGRvbWFpbm5ldmVydXNlZC5u
ZXQxGDAWBgNVBAoTD2RvbWFpbm5ldmVydXNlZDEWMBQGA1UECxMNSVQgRGVwYXJ0
bWVudDCBnzANBgkqhkiG9w0BAQEFAAOBjQAwgYkCgYEAu6RvNzeWFq1/OOk15PNj
3+BB8HRd9uNOTuFo3CbfjA3kGBDz+gznS+voRjFpvYNIdQ2cQUxwIiTQc/M8nMxp
vdLfCO+lu/6Me/5+2NWlM1/1KdXaflTp5SGziNJj27/aP1dJ8032s7w1AdD8UbQU
G0WI9d39BL0pdgHFiGw+HYMCAwEAAaMgMB4wCQYDVR0TBAIwADARBglghkgBhvhC
AQEEBAMCBkAwDQYJKoZIhvcNAQEFBQADggEBADg3vAD+qKq9xI8a9hVsyOkO/9ot
glhUKgxSdrXtFm47q0ryi/nav+yP+ZG0hRnHdA8dQgLpEe6hPvrPhwyqJvmMmClx
MSBOeBhd3rrC0Xsv/2pobXGhYhilKkVrsNzPvqAZWqu1d1JJoytt6kDEbz/JwJq0
FURaVJ7KBKxdu9JVxREtfUvRjDdm2CR7B4jXvZr1Y136CYpYs9MlllL21ieTBNcg
cxL2O8Kv0i+Co/y3UHoQ6WU3VJIL8sIzfcACVdJ4q1mK1ijpMtvkg/imWAYc/Ffe
anq5FgmfQH607pn6rR6edcJ6iSTZyYs51RMhvbLZSOKo3nci/SAblhM+h3Y=
-----END CERTIFICATE-----
