Certificate:
    Data:
        Version: 3 (0x2)
        Serial Number: 1 (0x1)
    Signature Algorithm: sha1WithRSAEncryption
        Issuer: CN=DOMAINNEVERUSED Internal Root Certificate Authority, ST=ON, C=CA/emailAddress=hostmaster@domainneverused.net, O=domainneverused
        Validity
            Not Before: Oct 27 19:52:23 2015 GMT
            Not After : Oct 25 19:52:23 2020 GMT
        Subject: CN=ssl.domainneverused.net, ST=ON, C=CA/emailAddress=hostmaster@domainneverused.net, O=domainneverused, OU=IT Department
        Subject Public Key Info:
            Public Key Algorithm: rsaEncryption
                Public-Key: (1024 bit)
                Modulus:
                    00:e2:fe:2c:3f:72:12:9c:43:30:20:9b:aa:b3:61:
                    3d:01:7c:db:e6:e2:5b:e0:1c:bc:c8:0e:87:48:35:
                    dc:65:5e:1a:9c:40:14:80:58:4e:cd:a8:5c:08:89:
                    7a:50:16:3e:35:49:88:eb:b4:95:43:f1:a6:1f:7c:
                    82:7d:3f:cc:6e:2e:ce:78:06:c5:20:b7:57:f4:49:
                    2c:92:de:2c:c6:c0:13:6d:b7:d3:ea:09:02:01:3b:
                    64:82:77:f3:69:db:1e:39:51:6d:19:1d:e4:5d:cd:
                    c9:d4:0f:73:b7:36:9d:80:f4:32:81:f3:a3:d1:f7:
                    e7:1a:82:c1:5c:88:63:2d:3b
                Exponent: 65537 (0x10001)
        X509v3 extensions:
            X509v3 Basic Constraints: 
                CA:FALSE
            Netscape Cert Type: 
                SSL Server
    Signature Algorithm: sha1WithRSAEncryption
         05:39:28:3f:ce:2b:0a:95:03:09:e0:64:dd:dd:d4:43:27:cc:
         d8:95:2a:5a:32:29:2a:77:b7:14:cb:35:44:e3:a7:3e:69:8c:
         a3:77:bd:c0:78:92:88:92:d6:54:1b:03:96:24:09:c5:05:a7:
         94:f1:e9:8d:ab:75:90:a1:4d:c5:03:95:62:b6:e4:76:ab:5a:
         1f:3e:fb:c7:bd:a2:64:3d:4b:c5:c5:d2:41:62:74:7d:31:01:
         6d:de:42:c7:f1:ba:af:76:7b:6d:3a:c6:cc:77:01:3c:0e:fb:
         6e:6a:6c:53:07:35:ff:81:d3:9a:d7:40:e5:10:4f:0b:13:4a:
         7b:55:69:9b:37:2f:ef:ba:38:8c:17:b6:70:3e:67:01:7d:d4:
         ff:a6:a5:c7:cc:ea:f8:93:e4:cf:74:b0:dc:ca:98:a5:83:b1:
         34:57:ca:19:2f:e4:53:df:0b:13:58:db:e2:b8:7d:00:87:55:
         bf:63:12:d3:88:ed:ae:e5:f2:7c:88:80:c7:c7:3f:c2:7e:5c:
         d7:48:ec:9c:fb:28:22:d0:6f:41:42:e3:15:66:56:04:3d:61:
         ba:7a:70:78:9b:a0:38:7f:2b:d9:f0:f5:76:59:f4:6d:2f:1d:
         68:68:40:5b:93:c8:fc:d0:f0:fe:72:c9:75:b3:85:07:4b:d4:
         7a:0b:b0:5f
-----BEGIN CERTIFICATE-----
MIIDVzCCAj+gAwIBAgIBATANBgkqhkiG9w0BAQUFADCBoTE8MDoGA1UEAxMzRE9N
QUlOTkVWRVJVU0VEIEludGVybmFsIFJvb3QgQ2VydGlmaWNhdGUgQXV0aG9yaXR5
MQswCQYDVQQIEwJPTjELMAkGA1UEBhMCQ0ExLTArBgkqhkiG9w0BCQEWHmhvc3Rt
YXN0ZXJAZG9tYWlubmV2ZXJ1c2VkLm5ldDEYMBYGA1UEChMPZG9tYWlubmV2ZXJ1
c2VkMB4XDTE1MTAyNzE5NTIyM1oXDTIwMTAyNTE5NTIyM1owgZ0xIDAeBgNVBAMT
F3NzbC5kb21haW5uZXZlcnVzZWQubmV0MQswCQYDVQQIEwJPTjELMAkGA1UEBhMC
Q0ExLTArBgkqhkiG9w0BCQEWHmhvc3RtYXN0ZXJAZG9tYWlubmV2ZXJ1c2VkLm5l
dDEYMBYGA1UEChMPZG9tYWlubmV2ZXJ1c2VkMRYwFAYDVQQLEw1JVCBEZXBhcnRt
ZW50MIGfMA0GCSqGSIb3DQEBAQUAA4GNADCBiQKBgQDi/iw/chKcQzAgm6qzYT0B
fNvm4lvgHLzIDodINdxlXhqcQBSAWE7NqFwIiXpQFj41SYjrtJVD8aYffIJ9P8xu
Ls54BsUgt1f0SSyS3izGwBNtt9PqCQIBO2SCd/Np2x45UW0ZHeRdzcnUD3O3Np2A
9DKB86PR9+cagsFciGMtOwIDAQABoyAwHjAJBgNVHRMEAjAAMBEGCWCGSAGG+EIB
AQQEAwIGQDANBgkqhkiG9w0BAQUFAAOCAQEABTkoP84rCpUDCeBk3d3UQyfM2JUq
WjIpKne3FMs1ROOnPmmMo3e9wHiSiJLWVBsDliQJxQWnlPHpjat1kKFNxQOVYrbk
dqtaHz77x72iZD1LxcXSQWJ0fTEBbd5Cx/G6r3Z7bTrGzHcBPA77bmpsUwc1/4HT
mtdA5RBPCxNKe1Vpmzcv77o4jBe2cD5nAX3U/6alx8zq+JPkz3Sw3MqYpYOxNFfK
GS/kU98LE1jb4rh9AIdVv2MS04jtruXyfIiAx8c/wn5c10jsnPsoItBvQULjFWZW
BD1hunpweJugOH8r2fD1dln0bS8daGhAW5PI/NDw/nLJdbOFB0vUeguwXw==
-----END CERTIFICATE-----
