Certificate:
    Data:
        Version: 3 (0x2)
        Serial Number: 2 (0x2)
    Signature Algorithm: sha1WithRSAEncryption
        Issuer: CN=DOMAINNEVERUSED Internal Root Certificate Authority, ST=ON, C=CA/emailAddress=hostmaster@domainneverused.net, O=domainneverused
        Validity
            Not Before: Oct 27 19:52:24 2015 GMT
            Not After : Oct 25 19:52:24 2020 GMT
        Subject: CN=aphrodite.domainneverused.net, ST=ON, C=CA/emailAddress=hostmaster@domainneverused.net, O=domainneverused, OU=IT Department
        Subject Public Key Info:
            Public Key Algorithm: rsaEncryption
                Public-Key: (1024 bit)
                Modulus:
                    00:c7:05:9c:0a:64:04:07:f4:98:42:ed:a5:13:9c:
                    fa:9f:ff:a3:c4:c4:10:69:37:f5:2c:4a:47:c4:2b:
                    8a:66:cf:d9:fe:48:07:1e:5c:fc:3f:05:60:90:18:
                    c9:a9:0e:22:df:9f:f4:e0:42:e2:5f:21:09:a3:48:
                    44:5e:a3:65:4b:b3:8d:5f:5d:6c:a2:b9:c2:fe:6d:
                    bf:d8:df:2f:c5:bd:00:f1:6a:ca:ab:90:5f:41:01:
                    9d:bd:c6:71:5f:cc:ad:25:15:b2:6e:c7:a8:c2:fe:
                    40:da:dd:3d:34:7e:af:3d:30:17:3a:4d:33:cd:85:
                    2f:67:55:02:6d:39:74:5a:43
                Exponent: 65537 (0x10001)
        X509v3 extensions:
            X509v3 Basic Constraints: 
                CA:FALSE
            Netscape Cert Type: 
                SSL Server
    Signature Algorithm: sha1WithRSAEncryption
         51:05:ff:fc:3c:a9:e8:fc:40:01:b9:a1:4e:ec:b6:6a:cc:c0:
         3c:50:c4:9b:96:c6:0f:8d:e0:9d:ca:b0:53:ae:43:5c:a4:51:
         61:59:ae:d4:55:93:f3:9c:5e:44:38:46:15:3c:c2:30:ea:01:
         53:26:30:3d:a5:6e:6d:fe:2f:31:14:0a:97:da:86:d4:d8:8a:
         ce:01:26:4b:9a:29:a5:27:d4:6f:23:eb:22:8a:18:d9:a2:74:
         d9:f5:c1:fd:dc:f3:17:48:1c:de:4d:1a:4b:3c:29:64:a0:ef:
         52:ab:b4:9d:f8:0c:f4:8e:b7:8f:c0:b0:80:62:ce:80:6c:de:
         6d:d2:29:53:ca:9f:6e:95:e2:f2:f7:33:0f:ed:b7:84:69:a5:
         e4:3d:e0:fe:62:11:55:36:8a:c3:6a:9b:5a:72:0b:86:61:f0:
         e0:a8:85:03:7e:83:e6:d9:51:d0:ce:c4:81:ea:67:50:d5:7c:
         33:0c:14:1c:f4:84:42:d6:22:1c:b5:68:9c:03:3e:9a:ed:4d:
         0c:71:46:31:00:89:55:d4:4e:fb:4f:e4:b7:9c:b3:18:35:47:
         a7:9c:26:5d:d0:e7:46:c3:82:a3:c2:cb:9e:ef:a3:ca:a2:fa:
         c1:1c:e5:f5:dc:53:ad:3b:fa:01:ec:03:1c:94:55:ce:44:90:
         05:26:82:4e
-----BEGIN CERTIFICATE-----
MIIDXTCCAkWgAwIBAgIBAjANBgkqhkiG9w0BAQUFADCBoTE8MDoGA1UEAxMzRE9N
QUlOTkVWRVJVU0VEIEludGVybmFsIFJvb3QgQ2VydGlmaWNhdGUgQXV0aG9yaXR5
MQswCQYDVQQIEwJPTjELMAkGA1UEBhMCQ0ExLTArBgkqhkiG9w0BCQEWHmhvc3Rt
YXN0ZXJAZG9tYWlubmV2ZXJ1c2VkLm5ldDEYMBYGA1UEChMPZG9tYWlubmV2ZXJ1
c2VkMB4XDTE1MTAyNzE5NTIyNFoXDTIwMTAyNTE5NTIyNFowgaMxJjAkBgNVBAMT
HWFwaHJvZGl0ZS5kb21haW5uZXZlcnVzZWQubmV0MQswCQYDVQQIEwJPTjELMAkG
A1UEBhMCQ0ExLTArBgkqhkiG9w0BCQEWHmhvc3RtYXN0ZXJAZG9tYWlubmV2ZXJ1
c2VkLm5ldDEYMBYGA1UEChMPZG9tYWlubmV2ZXJ1c2VkMRYwFAYDVQQLEw1JVCBE
ZXBhcnRtZW50MIGfMA0GCSqGSIb3DQEBAQUAA4GNADCBiQKBgQDHBZwKZAQH9JhC
7aUTnPqf/6PExBBpN/UsSkfEK4pmz9n+SAceXPw/BWCQGMmpDiLfn/TgQuJfIQmj
SEReo2VLs41fXWyiucL+bb/Y3y/FvQDxasqrkF9BAZ29xnFfzK0lFbJux6jC/kDa
3T00fq89MBc6TTPNhS9nVQJtOXRaQwIDAQABoyAwHjAJBgNVHRMEAjAAMBEGCWCG
SAGG+EIBAQQEAwIGQDANBgkqhkiG9w0BAQUFAAOCAQEAUQX//Dyp6PxAAbmhTuy2
aszAPFDEm5bGD43gncqwU65DXKRRYVmu1FWT85xeRDhGFTzCMOoBUyYwPaVubf4v
MRQKl9qG1NiKzgEmS5oppSfUbyPrIooY2aJ02fXB/dzzF0gc3k0aSzwpZKDvUqu0
nfgM9I63j8CwgGLOgGzebdIpU8qfbpXi8vczD+23hGml5D3g/mIRVTaKw2qbWnIL
hmHw4KiFA36D5tlR0M7EgepnUNV8MwwUHPSEQtYiHLVonAM+mu1NDHFGMQCJVdRO
+0/kt5yzGDVHp5wmXdDnRsOCo8LLnu+jyqL6wRzl9dxTrTv6AewDHJRVzkSQBSaC
Tg==
-----END CERTIFICATE-----
