Certificate:
    Data:
        Version: 3 (0x2)
        Serial Number: 4 (0x4)
    Signature Algorithm: sha1WithRSAEncryption
        Issuer: CN=DOMAINNEVERUSED Internal Root Certificate Authority, ST=ON, C=CA/emailAddress=hostmaster@domainneverused.net, O=domainneverused
        Validity
            Not Before: Oct 27 19:52:27 2015 GMT
            Not After : Oct 25 19:52:27 2020 GMT
        Subject: CN=smtp.domainneverused.net, ST=ON, C=CA/emailAddress=hostmaster@domainneverused.net, O=domainneverused, OU=IT Department
        Subject Public Key Info:
            Public Key Algorithm: rsaEncryption
                Public-Key: (1024 bit)
                Modulus:
                    00:e4:a7:68:61:a7:ac:1d:7c:a7:23:87:f5:f9:19:
                    aa:87:bc:a7:47:96:e2:38:6d:55:ad:63:9d:c0:2f:
                    8b:41:6d:79:2d:db:ec:6a:60:73:ef:99:d9:4c:9b:
                    84:99:4e:49:bb:55:d1:15:ee:b7:2a:85:6c:0f:7c:
                    7c:f6:43:98:0e:5a:d3:05:7e:da:0d:97:4f:a1:ac:
                    93:8d:9c:6c:3c:e7:4f:a6:2c:b1:93:fc:c4:82:cf:
                    87:20:c7:5c:81:2a:a9:5a:f8:90:1c:38:ee:09:83:
                    50:1f:d9:f4:6f:8e:1a:1d:c6:98:e1:43:93:10:aa:
                    69:5b:11:fa:49:c4:fc:52:a7
                Exponent: 65537 (0x10001)
        X509v3 extensions:
            X509v3 Basic Constraints: 
                CA:FALSE
            Netscape Cert Type: 
                SSL Server
    Signature Algorithm: sha1WithRSAEncryption
         25:ee:cb:ff:07:c9:f8:71:94:57:41:18:5c:6f:0d:d5:52:32:
         a4:88:1e:9a:33:76:11:0c:65:42:2c:8f:21:3c:a0:a7:a2:7a:
         f8:46:d1:9e:c0:05:d1:76:a4:4e:1b:58:79:0b:3b:21:0b:a1:
         af:18:bb:e2:72:e7:9b:1f:44:08:c0:f0:c3:74:97:52:e8:8a:
         ee:09:fa:e2:49:c8:f6:45:2b:54:03:8c:42:d7:6a:90:31:ae:
         cc:de:c0:b8:a3:f5:07:5c:fd:a2:f6:84:ff:e8:56:95:9a:a6:
         35:21:72:34:33:e6:d2:1f:a9:e5:db:b0:1e:ce:4b:bc:81:72:
         e0:b9:89:62:2a:d6:90:0c:cc:b0:06:5e:25:a8:21:14:8b:31:
         f9:22:a1:3c:e1:50:98:26:4d:7d:59:c8:15:5c:59:e0:2d:aa:
         99:5b:4f:c3:8a:c3:62:ca:38:16:fd:16:5c:70:ca:9c:5d:8a:
         81:0c:37:fa:0f:46:98:e4:d0:af:7d:a3:bd:36:6e:a5:da:c8:
         c4:2c:c1:fd:1e:23:b8:72:df:88:7d:27:f5:83:a7:43:86:d3:
         a0:92:a8:13:71:50:3c:77:62:54:27:50:59:e6:c9:e3:b2:7c:
         2b:6b:1f:00:f1:ba:1e:56:07:ed:f7:10:e7:40:c6:7f:ca:70:
         44:8b:09:22
-----BEGIN CERTIFICATE-----
MIIDWDCCAkCgAwIBAgIBBDANBgkqhkiG9w0BAQUFADCBoTE8MDoGA1UEAxMzRE9N
QUlOTkVWRVJVU0VEIEludGVybmFsIFJvb3QgQ2VydGlmaWNhdGUgQXV0aG9yaXR5
MQswCQYDVQQIEwJPTjELMAkGA1UEBhMCQ0ExLTArBgkqhkiG9w0BCQEWHmhvc3Rt
YXN0ZXJAZG9tYWlubmV2ZXJ1c2VkLm5ldDEYMBYGA1UEChMPZG9tYWlubmV2ZXJ1
c2VkMB4XDTE1MTAyNzE5NTIyN1oXDTIwMTAyNTE5NTIyN1owgZ4xITAfBgNVBAMT
GHNtdHAuZG9tYWlubmV2ZXJ1c2VkLm5ldDELMAkGA1UECBMCT04xCzAJBgNVBAYT
AkNBMS0wKwYJKoZIhvcNAQkBFh5ob3N0bWFzdGVyQGRvbWFpbm5ldmVydXNlZC5u
ZXQxGDAWBgNVBAoTD2RvbWFpbm5ldmVydXNlZDEWMBQGA1UECxMNSVQgRGVwYXJ0
bWVudDCBnzANBgkqhkiG9w0BAQEFAAOBjQAwgYkCgYEA5KdoYaesHXynI4f1+Rmq
h7ynR5biOG1VrWOdwC+LQW15LdvsamBz75nZTJuEmU5Ju1XRFe63KoVsD3x89kOY
DlrTBX7aDZdPoayTjZxsPOdPpiyxk/zEgs+HIMdcgSqpWviQHDjuCYNQH9n0b44a
HcaY4UOTEKppWxH6ScT8UqcCAwEAAaMgMB4wCQYDVR0TBAIwADARBglghkgBhvhC
AQEEBAMCBkAwDQYJKoZIhvcNAQEFBQADggEBACXuy/8HyfhxlFdBGFxvDdVSMqSI
HpozdhEMZUIsjyE8oKeievhG0Z7ABdF2pE4bWHkLOyELoa8Yu+Jy55sfRAjA8MN0
l1Loiu4J+uJJyPZFK1QDjELXapAxrszewLij9Qdc/aL2hP/oVpWapjUhcjQz5tIf
qeXbsB7OS7yBcuC5iWIq1pAMzLAGXiWoIRSLMfkioTzhUJgmTX1ZyBVcWeAtqplb
T8OKw2LKOBb9FlxwypxdioEMN/oPRpjk0K99o702bqXayMQswf0eI7hy34h9J/WD
p0OG06CSqBNxUDx3YlQnUFnmyeOyfCtrHwDxuh5WB+33EOdAxn/KcESLCSI=
-----END CERTIFICATE-----
