Certificate:
    Data:
        Version: 3 (0x2)
        Serial Number: 5 (0x5)
    Signature Algorithm: sha1WithRSAEncryption
        Issuer: CN=DOMAINNEVERUSED Internal Root Certificate Authority, ST=ON, C=CA/emailAddress=hostmaster@domainneverused.net, O=domainneverused
        Validity
            Not Before: Oct 27 19:52:28 2015 GMT
            Not After : Oct 25 19:52:28 2020 GMT
        Subject: CN=dkim.domainneverused.net, ST=ON, C=CA/emailAddress=hostmaster@domainneverused.net, O=domainneverused, OU=IT Department
        Subject Public Key Info:
            Public Key Algorithm: rsaEncryption
                Public-Key: (1024 bit)
                Modulus:
                    00:c8:c0:53:84:6c:c5:73:c7:90:dd:ee:1a:ec:b7:
                    11:e1:ca:6f:a5:5a:c2:b4:40:a7:e9:0d:ce:23:7d:
                    57:3b:17:55:05:41:06:e8:8a:96:57:17:fc:f8:7c:
                    27:fa:e3:05:21:e2:a5:7a:6e:88:c2:13:13:fd:af:
                    45:98:fc:2f:a2:5e:67:ad:4c:30:3c:43:34:7a:1a:
                    21:ea:b7:96:30:f5:4d:a6:eb:e4:a0:4d:72:19:54:
                    17:71:b8:c4:91:8c:28:37:8c:11:83:b6:b0:e3:bb:
                    5b:56:16:de:00:ef:e2:69:03:c0:47:5e:f0:68:a3:
                    5a:e7:aa:8b:82:9a:ba:ed:f5
                Exponent: 65537 (0x10001)
        X509v3 extensions:
            X509v3 Basic Constraints: 
                CA:FALSE
            Netscape Cert Type: 
                SSL Server
    Signature Algorithm: sha1WithRSAEncryption
         28:27:12:42:74:96:ff:89:31:35:c0:01:ad:ff:29:70:e9:57:
         4f:85:94:a4:7b:d5:61:63:12:67:0b:38:b5:58:18:fd:c4:b5:
         0a:14:99:07:e1:9e:bb:db:79:9f:ae:09:c8:9b:6b:d0:34:a8:
         3f:37:58:03:65:ba:3a:eb:79:e2:f3:bc:e7:c2:38:ee:2f:84:
         2a:96:78:8e:78:1c:3c:cd:73:df:58:e1:ee:5f:d3:9b:05:c8:
         af:7c:fb:bc:87:dc:de:55:81:90:5b:2a:d6:45:a7:5c:1c:0e:
         58:95:4b:a8:ee:d4:e8:f1:10:5c:c6:14:02:fd:d5:88:a9:c0:
         23:36:7a:c3:5a:6e:ce:59:e0:31:3d:c8:a1:37:20:9f:17:45:
         f8:3a:ba:53:2f:7c:3c:ed:54:27:7c:07:1c:14:1c:8f:83:b6:
         cf:ef:ae:97:0f:df:dd:02:a8:29:2a:5a:f7:ef:52:63:e0:e0:
         4e:4d:f2:41:3e:61:b8:23:16:f8:50:7d:c0:88:a6:1f:46:29:
         51:f3:04:21:ef:2b:36:53:9f:59:a1:bd:dc:b4:d9:f1:c9:4c:
         25:e3:96:e6:15:58:4e:98:bf:0d:f8:3e:b0:c7:e8:c6:ed:eb:
         ce:92:17:3d:2e:17:f9:a5:7c:21:be:ac:29:c2:d4:16:12:e3:
         aa:01:9c:7c
-----BEGIN CERTIFICATE-----
MIIDWDCCAkCgAwIBAgIBBTANBgkqhkiG9w0BAQUFADCBoTE8MDoGA1UEAxMzRE9N
QUlOTkVWRVJVU0VEIEludGVybmFsIFJvb3QgQ2VydGlmaWNhdGUgQXV0aG9yaXR5
MQswCQYDVQQIEwJPTjELMAkGA1UEBhMCQ0ExLTArBgkqhkiG9w0BCQEWHmhvc3Rt
YXN0ZXJAZG9tYWlubmV2ZXJ1c2VkLm5ldDEYMBYGA1UEChMPZG9tYWlubmV2ZXJ1
c2VkMB4XDTE1MTAyNzE5NTIyOFoXDTIwMTAyNTE5NTIyOFowgZ4xITAfBgNVBAMT
GGRraW0uZG9tYWlubmV2ZXJ1c2VkLm5ldDELMAkGA1UECBMCT04xCzAJBgNVBAYT
AkNBMS0wKwYJKoZIhvcNAQkBFh5ob3N0bWFzdGVyQGRvbWFpbm5ldmVydXNlZC5u
ZXQxGDAWBgNVBAoTD2RvbWFpbm5ldmVydXNlZDEWMBQGA1UECxMNSVQgRGVwYXJ0
bWVudDCBnzANBgkqhkiG9w0BAQEFAAOBjQAwgYkCgYEAyMBThGzFc8eQ3e4a7LcR
4cpvpVrCtECn6Q3OI31XOxdVBUEG6IqWVxf8+Hwn+uMFIeKlem6IwhMT/a9FmPwv
ol5nrUwwPEM0ehoh6reWMPVNpuvkoE1yGVQXcbjEkYwoN4wRg7aw47tbVhbeAO/i
aQPAR17waKNa56qLgpq67fUCAwEAAaMgMB4wCQYDVR0TBAIwADARBglghkgBhvhC
AQEEBAMCBkAwDQYJKoZIhvcNAQEFBQADggEBACgnEkJ0lv+JMTXAAa3/KXDpV0+F
lKR71WFjEmcLOLVYGP3EtQoUmQfhnrvbeZ+uCciba9A0qD83WANlujrreeLzvOfC
OO4vhCqWeI54HDzNc99Y4e5f05sFyK98+7yH3N5VgZBbKtZFp1wcDliVS6ju1Ojx
EFzGFAL91YipwCM2esNabs5Z4DE9yKE3IJ8XRfg6ulMvfDztVCd8BxwUHI+Dts/v
rpcP390CqCkqWvfvUmPg4E5N8kE+YbgjFvhQfcCIph9GKVHzBCHvKzZTn1mhvdy0
2fHJTCXjluYVWE6Yvw34PrDH6Mbt686SFz0uF/mlfCG+rCnC1BYS46oBnHw=
-----END CERTIFICATE-----
