Certificate:
    Data:
        Version: 3 (0x2)
        Serial Number: 6 (0x6)
    Signature Algorithm: sha1WithRSAEncryption
        Issuer: CN=DOMAINNEVERUSED Internal Root Certificate Authority, ST=ON, C=CA/emailAddress=hostmaster@domainneverused.net, O=domainneverused
        Validity
            Not Before: Oct 27 19:52:29 2015 GMT
            Not After : Oct 25 19:52:29 2020 GMT
        Subject: CN=xmpp.domainneverused.net, ST=ON, C=CA/emailAddress=hostmaster@domainneverused.net, O=domainneverused, OU=IT Department
        Subject Public Key Info:
            Public Key Algorithm: rsaEncryption
                Public-Key: (1024 bit)
                Modulus:
                    00:e6:5e:9e:8a:c3:6f:e9:01:fd:12:3b:cb:ce:ab:
                    58:5e:3a:d8:74:e4:ca:8a:7e:81:27:3f:2a:45:b5:
                    32:13:f1:a3:cb:b5:b6:96:70:62:0f:79:e2:d0:3e:
                    e6:d0:82:3b:99:c5:77:c0:ca:2f:33:5b:eb:c1:12:
                    7f:b2:10:88:03:51:f9:5a:c1:7c:8c:80:1f:00:cd:
                    a8:6a:fb:bb:19:56:10:05:7f:ee:38:82:53:85:39:
                    7d:9e:09:1b:15:77:f0:4e:e3:31:44:f0:3f:af:76:
                    00:e9:56:db:0c:ce:e6:2b:32:79:ec:41:c8:29:11:
                    0d:63:4c:b7:c3:a2:56:87:71
                Exponent: 65537 (0x10001)
        X509v3 extensions:
            X509v3 Basic Constraints: 
                CA:FALSE
            Netscape Cert Type: 
                SSL Server
    Signature Algorithm: sha1WithRSAEncryption
         b8:4c:b3:69:a4:c6:6e:b5:53:97:16:49:8f:1c:9a:86:65:51:
         b4:eb:a6:5f:f3:9c:d5:b9:69:62:32:1b:b0:ab:ae:9a:b6:a2:
         f5:6f:e8:3f:96:50:25:81:d1:bc:ff:3a:ea:0a:15:ed:ec:2b:
         10:f8:09:25:41:82:2e:14:92:e2:8b:40:e1:0f:ec:6f:3d:7d:
         bb:8f:eb:db:93:80:5c:98:f0:4e:d7:bd:0a:c4:35:a3:72:80:
         fb:1d:25:96:18:9e:a2:bf:5f:49:30:45:bd:6f:c0:25:73:33:
         d4:91:50:92:59:64:24:55:dc:cc:fc:c8:19:d5:8f:56:e4:35:
         e4:50:24:47:10:d1:ce:d1:57:3b:7d:f6:b8:0b:67:65:f6:20:
         6b:f5:0a:b7:a1:7d:4c:a9:32:80:cc:94:d9:1d:24:7b:ef:5e:
         9f:08:e2:cd:9f:c8:2c:43:76:4d:d8:e5:c8:11:10:b1:7c:76:
         88:33:fb:56:fb:ab:0e:f7:44:0a:20:70:bd:93:8a:03:fc:27:
         bc:0d:3b:c4:e7:1d:ec:77:ef:2c:e3:f1:dd:7f:ef:df:33:c3:
         3b:8b:a9:5c:bf:e3:a5:0c:a4:1f:ee:60:9f:e5:c8:72:88:30:
         fe:97:52:96:6a:77:f8:49:c2:59:6d:63:49:2d:09:21:9b:24:
         27:3c:92:ae
-----BEGIN CERTIFICATE-----
MIIDWDCCAkCgAwIBAgIBBjANBgkqhkiG9w0BAQUFADCBoTE8MDoGA1UEAxMzRE9N
QUlOTkVWRVJVU0VEIEludGVybmFsIFJvb3QgQ2VydGlmaWNhdGUgQXV0aG9yaXR5
MQswCQYDVQQIEwJPTjELMAkGA1UEBhMCQ0ExLTArBgkqhkiG9w0BCQEWHmhvc3Rt
YXN0ZXJAZG9tYWlubmV2ZXJ1c2VkLm5ldDEYMBYGA1UEChMPZG9tYWlubmV2ZXJ1
c2VkMB4XDTE1MTAyNzE5NTIyOVoXDTIwMTAyNTE5NTIyOVowgZ4xITAfBgNVBAMT
GHhtcHAuZG9tYWlubmV2ZXJ1c2VkLm5ldDELMAkGA1UECBMCT04xCzAJBgNVBAYT
AkNBMS0wKwYJKoZIhvcNAQkBFh5ob3N0bWFzdGVyQGRvbWFpbm5ldmVydXNlZC5u
ZXQxGDAWBgNVBAoTD2RvbWFpbm5ldmVydXNlZDEWMBQGA1UECxMNSVQgRGVwYXJ0
bWVudDCBnzANBgkqhkiG9w0BAQEFAAOBjQAwgYkCgYEA5l6eisNv6QH9EjvLzqtY
XjrYdOTKin6BJz8qRbUyE/Gjy7W2lnBiD3ni0D7m0II7mcV3wMovM1vrwRJ/shCI
A1H5WsF8jIAfAM2oavu7GVYQBX/uOIJThTl9ngkbFXfwTuMxRPA/r3YA6VbbDM7m
KzJ57EHIKRENY0y3w6JWh3ECAwEAAaMgMB4wCQYDVR0TBAIwADARBglghkgBhvhC
AQEEBAMCBkAwDQYJKoZIhvcNAQEFBQADggEBALhMs2mkxm61U5cWSY8cmoZlUbTr
pl/znNW5aWIyG7Crrpq2ovVv6D+WUCWB0bz/OuoKFe3sKxD4CSVBgi4UkuKLQOEP
7G89fbuP69uTgFyY8E7XvQrENaNygPsdJZYYnqK/X0kwRb1vwCVzM9SRUJJZZCRV
3Mz8yBnVj1bkNeRQJEcQ0c7RVzt99rgLZ2X2IGv1CrehfUypMoDMlNkdJHvvXp8I
4s2fyCxDdk3Y5cgRELF8dogz+1b7qw73RAogcL2TigP8J7wNO8TnHex37yzj8d1/
798zwzuLqVy/46UMpB/uYJ/lyHKIMP6XUpZqd/hJwlltY0ktCSGbJCc8kq4=
-----END CERTIFICATE-----
