Certificate:
    Data:
        Version: 3 (0x2)
        Serial Number: 7 (0x7)
    Signature Algorithm: sha1WithRSAEncryption
        Issuer: CN=DOMAINNEVERUSED Internal Root Certificate Authority, ST=ON, C=CA/emailAddress=hostmaster@domainneverused.net, O=domainneverused
        Validity
            Not Before: Oct 27 19:52:30 2015 GMT
            Not After : Oct 25 19:52:30 2020 GMT
        Subject: CN=xmpp.domainneverused.net, ST=ON, C=CA/emailAddress=hostmaster@domainneverused.net, O=domainneverused, OU=IT Department
        Subject Public Key Info:
            Public Key Algorithm: dsaEncryption
                pub: 
                    10:8a:ff:31:ba:55:e4:f5:ee:36:1d:55:4a:c4:61:
                    46:fc:43:7d:4c:d7:44:a8:f7:17:2c:44:d1:f3:cb:
                    ad:3f:c3:9c:d4:44:23:05:fa:fe:73:21:be:12:39:
                    84:8b:c0:e1:86:31:66:92:43:83:92:fd:b0:70:53:
                    ff:3d:26:ad:3e:e7:d2:22:57:ee:46:9f:0d:6b:3d:
                    e6:f2:f4:9b:9f:cc:ff:04:6d:1c:aa:1b:5a:93:1d:
                    89:a7:8d:f8:cc:02:25:7b:df:aa:56:02:1c:8e:c6:
                    bd:4b:db:80:a9:8c:c0:76:83:5c:f6:0e:b1:f2:68:
                    9e:1c:cf:ba:f6:7c:c2:3e
                P:   
                    00:aa:53:2f:11:a7:1f:5c:3f:7c:9d:2f:e9:df:08:
                    da:96:d1:8e:80:e0:2b:21:96:d1:ea:83:cc:6d:b7:
                    23:6c:8e:8f:0c:5f:2f:a6:0e:cd:d8:57:63:04:74:
                    68:49:8d:09:65:a4:db:d6:cf:c9:a1:d8:60:41:aa:
                    19:5f:20:e9:ef:65:eb:e6:ba:36:58:d2:2f:a9:4b:
                    c8:2b:85:f7:ed:2d:82:1e:12:79:0d:49:21:9c:8c:
                    05:1f:98:c7:84:ed:2a:28:0b:07:fb:73:63:1b:6d:
                    d0:0e:72:d9:b5:42:5a:47:0d:03:0b:9c:da:72:e6:
                    95:c1:a0:30:3b:b8:a5:64:6d
                Q:   
                    00:d7:92:00:33:30:32:53:87:53:e3:73:f7:06:78:
                    b3:bb:37:db:0e:0b
                G:   
                    00:93:97:eb:6e:89:e0:45:e2:e1:48:c7:32:c5:db:
                    af:0a:35:0d:56:88:a2:8b:a3:64:39:ae:92:7d:88:
                    95:43:01:44:83:a1:55:d9:55:bd:d6:9e:f3:15:1b:
                    92:d9:bd:4d:40:ab:18:0e:d4:22:6d:6a:cf:09:21:
                    78:40:06:37:13:38:cc:6b:b4:28:70:50:65:2b:57:
                    5b:c0:36:70:4d:bf:a1:76:06:8b:c3:01:97:bc:90:
                    91:98:2f:b2:a9:66:5e:84:00:ad:68:56:9e:c7:d5:
                    24:67:87:02:ef:10:9d:83:dc:88:2e:ad:1e:f0:f3:
                    c8:33:58:0d:14:ce:d5:42:61
        X509v3 extensions:
            X509v3 Basic Constraints: 
                CA:FALSE
            Netscape Cert Type: 
                SSL Server
    Signature Algorithm: sha1WithRSAEncryption
         23:68:74:87:51:76:00:90:4c:66:0a:ed:e9:35:1f:d9:e2:8d:
         a0:73:a1:52:cb:e7:3b:39:86:03:3e:27:2f:1d:d6:47:73:e2:
         a1:a7:78:16:1e:d8:74:d9:5e:81:98:5b:d4:14:40:47:8d:18:
         3a:12:a2:86:cc:e1:58:c5:ba:ea:c1:61:8a:0c:37:5b:31:8b:
         e9:6f:60:eb:0c:9f:58:a3:53:84:f3:1b:7d:af:e7:f5:fd:ba:
         1d:cf:7c:13:5d:22:06:f4:68:ef:b7:fe:44:0f:11:29:8b:f9:
         b3:6b:f1:7e:6b:29:0c:b6:fc:62:ce:c1:2d:9f:1b:d0:a8:df:
         28:17:e5:6d:93:4f:26:3a:82:d7:32:21:f8:32:da:11:e2:f6:
         a5:97:a5:97:0e:64:28:f7:4a:c2:50:bd:4d:4f:3a:29:e7:81:
         d8:f3:81:3c:89:c7:65:b2:4c:db:33:f0:f6:6d:b2:36:d4:e9:
         21:f8:3c:5e:45:54:bf:df:93:68:b5:34:05:17:f8:12:6f:a5:
         80:00:58:2f:88:34:f7:7a:e1:5d:f4:38:fc:8e:98:a7:09:a2:
         e8:8f:97:c9:06:2a:08:55:b5:96:23:e4:41:12:d4:91:d1:5d:
         ba:bb:0e:d6:f6:11:42:ca:e2:f7:bd:bd:a3:20:ff:53:96:2c:
         16:2c:33:4c
-----BEGIN CERTIFICATE-----
MIIEcTCCA1mgAwIBAgIBBzANBgkqhkiG9w0BAQUFADCBoTE8MDoGA1UEAxMzRE9N
QUlOTkVWRVJVU0VEIEludGVybmFsIFJvb3QgQ2VydGlmaWNhdGUgQXV0aG9yaXR5
MQswCQYDVQQIEwJPTjELMAkGA1UEBhMCQ0ExLTArBgkqhkiG9w0BCQEWHmhvc3Rt
YXN0ZXJAZG9tYWlubmV2ZXJ1c2VkLm5ldDEYMBYGA1UEChMPZG9tYWlubmV2ZXJ1
c2VkMB4XDTE1MTAyNzE5NTIzMFoXDTIwMTAyNTE5NTIzMFowgZ4xITAfBgNVBAMT
GHhtcHAuZG9tYWlubmV2ZXJ1c2VkLm5ldDELMAkGA1UECBMCT04xCzAJBgNVBAYT
AkNBMS0wKwYJKoZIhvcNAQkBFh5ob3N0bWFzdGVyQGRvbWFpbm5ldmVydXNlZC5u
ZXQxGDAWBgNVBAoTD2RvbWFpbm5ldmVydXNlZDEWMBQGA1UECxMNSVQgRGVwYXJ0
bWVudDCCAbcwggEsBgcqhkjOOAQBMIIBHwKBgQCqUy8Rpx9cP3ydL+nfCNqW0Y6A
4CshltHqg8xttyNsjo8MXy+mDs3YV2MEdGhJjQllpNvWz8mh2GBBqhlfIOnvZevm
ujZY0i+pS8grhfftLYIeEnkNSSGcjAUfmMeE7SooCwf7c2MbbdAOctm1QlpHDQML
nNpy5pXBoDA7uKVkbQIVANeSADMwMlOHU+Nz9wZ4s7s32w4LAoGBAJOX626J4EXi
4UjHMsXbrwo1DVaIooujZDmukn2IlUMBRIOhVdlVvdae8xUbktm9TUCrGA7UIm1q
zwkheEAGNxM4zGu0KHBQZStXW8A2cE2/oXYGi8MBl7yQkZgvsqlmXoQArWhWnsfV
JGeHAu8QnYPciC6tHvDzyDNYDRTO1UJhA4GEAAKBgBCK/zG6VeT17jYdVUrEYUb8
Q31M10So9xcsRNHzy60/w5zURCMF+v5zIb4SOYSLwOGGMWaSQ4OS/bBwU/89Jq0+
59IiV+5Gnw1rPeby9JufzP8EbRyqG1qTHYmnjfjMAiV736pWAhyOxr1L24CpjMB2
g1z2DrHyaJ4cz7r2fMI+oyAwHjAJBgNVHRMEAjAAMBEGCWCGSAGG+EIBAQQEAwIG
QDANBgkqhkiG9w0BAQUFAAOCAQEAI2h0h1F2AJBMZgrt6TUf2eKNoHOhUsvnOzmG
Az4nLx3WR3Pioad4Fh7YdNlegZhb1BRAR40YOhKihszhWMW66sFhigw3WzGL6W9g
6wyfWKNThPMbfa/n9f26Hc98E10iBvRo77f+RA8RKYv5s2vxfmspDLb8Ys7BLZ8b
0KjfKBflbZNPJjqC1zIh+DLaEeL2pZellw5kKPdKwlC9TU86KeeB2POBPInHZbJM
2zPw9m2yNtTpIfg8XkVUv9+TaLU0BRf4Em+lgABYL4g093rhXfQ4/I6Ypwmi6I+X
yQYqCFW1liPkQRLUkdFdursO1vYRQsri9729oyD/U5YsFiwzTA==
-----END CERTIFICATE-----
