Certificate:
    Data:
        Version: 3 (0x2)
        Serial Number: 1 (0x1)
    Signature Algorithm: sha1WithRSAEncryption
        Issuer: CN=NEWVIRTUALORGS Internal Root Certificate Authority, ST=ON, C=CA/emailAddress=hostmaster@newvirtualorgs.net, O=newvirtualorgs
        Validity
            Not Before: Oct  2 05:06:59 2015 GMT
            Not After : Sep 30 05:06:59 2020 GMT
        Subject: CN=ssl.newvirtualorgs.net, ST=ON, C=CA/emailAddress=hostmaster@newvirtualorgs.net, O=newvirtualorgs, OU=IT Department
        Subject Public Key Info:
            Public Key Algorithm: rsaEncryption
                Public-Key: (1024 bit)
                Modulus:
                    00:be:a4:f0:f8:a6:f9:4e:bc:af:b2:cc:44:29:21:
                    ae:f2:bc:27:35:20:bc:01:b0:3b:af:bd:4d:5f:7c:
                    01:5d:27:f5:c5:43:f0:b6:56:c4:f5:6c:a6:a6:d7:
                    46:d6:24:38:4f:04:9b:d6:52:7e:80:9a:c7:4d:63:
                    28:74:e6:b9:50:3a:32:f2:da:e3:87:08:b6:43:82:
                    60:2a:18:62:25:db:3d:08:45:d4:62:c2:54:be:50:
                    19:c0:98:39:de:a4:40:8e:a1:51:bb:de:73:7d:33:
                    25:1a:43:c0:19:ee:ae:08:e7:de:68:f8:cc:58:49:
                    91:f2:05:7b:ed:9c:cf:dd:55
                Exponent: 65537 (0x10001)
        X509v3 extensions:
            X509v3 Basic Constraints: 
                CA:FALSE
            Netscape Cert Type: 
                SSL Server
    Signature Algorithm: sha1WithRSAEncryption
         4a:4e:35:77:f2:a4:72:c1:84:37:03:46:a9:69:bc:92:9e:f7:
         a5:0c:c0:e6:1c:43:b4:61:4e:b9:aa:59:ee:24:23:04:cf:ee:
         64:6f:dd:cc:1f:b2:49:18:db:92:25:0d:9e:14:7c:26:0c:1f:
         2b:59:bb:e4:26:3a:1f:b1:77:38:bf:3c:d0:c3:07:98:de:c3:
         2f:7a:5a:1f:30:f5:1f:ba:e6:85:e9:c9:7f:69:77:43:af:42:
         b6:8c:fb:a2:b5:15:32:f3:d1:11:16:a8:4f:38:ee:8a:34:74:
         40:77:58:a2:cc:e8:6a:fc:ed:68:44:a2:3b:ab:a2:f1:8d:eb:
         0e:86:82:4a:4c:e7:6e:99:43:f2:55:d1:d2:63:4a:02:b2:55:
         78:f1:a5:86:44:7e:e1:bc:2f:41:bd:67:ca:a0:48:79:5b:f0:
         95:8d:d5:6e:fc:2d:3c:1f:89:3f:ad:8e:7d:a5:41:cf:6f:d2:
         04:4e:03:c3:79:74:35:b7:c3:76:bd:18:a4:21:d0:93:f7:da:
         7e:32:dd:f9:33:0e:79:f2:72:65:c7:cc:d2:b2:f1:98:07:08:
         6b:77:4f:71:97:cb:4d:53:bd:f5:ba:7c:1f:81:d4:5f:30:9a:
         cf:f2:e6:fd:d3:9b:f5:6e:4c:eb:b1:ca:79:59:1c:b8:16:05:
         72:ab:48:d8
-----BEGIN CERTIFICATE-----
MIIDUTCCAjmgAwIBAgIBATANBgkqhkiG9w0BAQUFADCBnjE7MDkGA1UEAxMyTkVX
VklSVFVBTE9SR1MgSW50ZXJuYWwgUm9vdCBDZXJ0aWZpY2F0ZSBBdXRob3JpdHkx
CzAJBgNVBAgTAk9OMQswCQYDVQQGEwJDQTEsMCoGCSqGSIb3DQEJARYdaG9zdG1h
c3RlckBuZXd2aXJ0dWFsb3Jncy5uZXQxFzAVBgNVBAoTDm5ld3ZpcnR1YWxvcmdz
MB4XDTE1MTAwMjA1MDY1OVoXDTIwMDkzMDA1MDY1OVowgZoxHzAdBgNVBAMTFnNz
bC5uZXd2aXJ0dWFsb3Jncy5uZXQxCzAJBgNVBAgTAk9OMQswCQYDVQQGEwJDQTEs
MCoGCSqGSIb3DQEJARYdaG9zdG1hc3RlckBuZXd2aXJ0dWFsb3Jncy5uZXQxFzAV
BgNVBAoTDm5ld3ZpcnR1YWxvcmdzMRYwFAYDVQQLEw1JVCBEZXBhcnRtZW50MIGf
MA0GCSqGSIb3DQEBAQUAA4GNADCBiQKBgQC+pPD4pvlOvK+yzEQpIa7yvCc1ILwB
sDuvvU1ffAFdJ/XFQ/C2VsT1bKam10bWJDhPBJvWUn6AmsdNYyh05rlQOjLy2uOH
CLZDgmAqGGIl2z0IRdRiwlS+UBnAmDnepECOoVG73nN9MyUaQ8AZ7q4I595o+MxY
SZHyBXvtnM/dVQIDAQABoyAwHjAJBgNVHRMEAjAAMBEGCWCGSAGG+EIBAQQEAwIG
QDANBgkqhkiG9w0BAQUFAAOCAQEASk41d/KkcsGENwNGqWm8kp73pQzA5hxDtGFO
uapZ7iQjBM/uZG/dzB+ySRjbkiUNnhR8JgwfK1m75CY6H7F3OL880MMHmN7DL3pa
HzD1H7rmhenJf2l3Q69Ctoz7orUVMvPRERaoTzjuijR0QHdYoszoavztaESiO6ui
8Y3rDoaCSkznbplD8lXR0mNKArJVePGlhkR+4bwvQb1nyqBIeVvwlY3VbvwtPB+J
P62OfaVBz2/SBE4Dw3l0NbfDdr0YpCHQk/fafjLd+TMOefJyZcfM0rLxmAcIa3dP
cZfLTVO99bp8H4HUXzCaz/Lm/dOb9W5M67HKeVkcuBYFcqtI2A==
-----END CERTIFICATE-----
