Certificate:
    Data:
        Version: 3 (0x2)
        Serial Number: 3 (0x3)
    Signature Algorithm: sha1WithRSAEncryption
        Issuer: CN=NEWVIRTUALORGS Internal Root Certificate Authority, ST=ON, C=CA/emailAddress=hostmaster@newvirtualorgs.net, O=newvirtualorgs
        Validity
            Not Before: Oct  2 05:07:01 2015 GMT
            Not After : Sep 30 05:07:01 2020 GMT
        Subject: CN=imap.newvirtualorgs.net, ST=ON, C=CA/emailAddress=hostmaster@newvirtualorgs.net, O=newvirtualorgs, OU=IT Department
        Subject Public Key Info:
            Public Key Algorithm: rsaEncryption
                Public-Key: (1024 bit)
                Modulus:
                    00:a4:1b:d5:27:3a:6f:3a:ac:da:bb:b6:01:d2:c0:
                    25:0c:74:46:6a:dc:e0:33:32:5a:6f:88:82:ae:14:
                    e3:f0:f4:34:1c:3a:77:b4:86:e8:1c:6e:35:d9:74:
                    82:3a:68:77:a9:3e:c6:aa:5d:14:02:c0:2e:90:1a:
                    f4:48:bf:6a:8c:75:a1:da:18:b6:b2:67:2c:0e:46:
                    d9:29:8e:fe:fc:ef:67:3f:87:1b:c6:ca:a4:b0:0a:
                    93:65:ce:62:40:b9:01:05:0e:bb:65:04:e6:75:cb:
                    3a:58:de:7e:14:b8:96:54:3d:11:d5:80:cc:d3:d3:
                    18:af:09:b2:ca:0a:0d:8a:67
                Exponent: 65537 (0x10001)
        X509v3 extensions:
            X509v3 Basic Constraints: 
                CA:FALSE
            Netscape Cert Type: 
                SSL Server
    Signature Algorithm: sha1WithRSAEncryption
         2f:06:43:b0:49:f1:5d:43:dd:65:c1:24:21:d0:cb:05:0f:84:
         c3:a9:ad:4c:ea:7d:a1:45:7f:b3:ec:69:3b:3c:3b:22:0d:5d:
         5e:41:a2:33:8b:75:6e:29:08:8f:1b:a8:32:a4:3b:5a:22:77:
         6f:65:8d:5e:1b:a8:b1:e6:b4:9a:cb:01:4a:71:f7:c1:83:a6:
         0e:3b:28:5c:f8:bf:59:0b:f3:7c:dc:9f:84:40:13:b2:fa:0a:
         80:fe:c1:bd:aa:19:00:50:7e:f3:6a:81:8b:e1:e4:de:5c:33:
         b6:12:81:23:93:73:e2:fb:90:2b:5d:b8:cb:53:75:ca:e5:20:
         ca:68:c8:99:de:6c:75:a5:25:ad:db:74:be:79:1d:20:5c:11:
         33:78:e1:10:43:19:aa:16:9a:0f:fe:69:75:c1:f2:b8:e3:21:
         02:13:dc:b1:26:d5:77:cb:a2:f4:8b:51:eb:62:b2:42:22:78:
         cf:f6:66:bd:c1:db:2b:e4:22:6f:d9:1a:47:84:df:be:6a:ff:
         cf:f3:08:d6:fe:b3:f5:58:d6:09:94:9d:6e:98:8e:f0:d5:7b:
         cb:98:40:80:85:65:47:2d:ff:9d:5d:30:a0:e9:fa:16:9d:41:
         85:b9:c6:67:58:bb:7c:48:1d:8c:f4:fc:b8:73:cc:13:83:35:
         04:83:af:50
-----BEGIN CERTIFICATE-----
MIIDUjCCAjqgAwIBAgIBAzANBgkqhkiG9w0BAQUFADCBnjE7MDkGA1UEAxMyTkVX
VklSVFVBTE9SR1MgSW50ZXJuYWwgUm9vdCBDZXJ0aWZpY2F0ZSBBdXRob3JpdHkx
CzAJBgNVBAgTAk9OMQswCQYDVQQGEwJDQTEsMCoGCSqGSIb3DQEJARYdaG9zdG1h
c3RlckBuZXd2aXJ0dWFsb3Jncy5uZXQxFzAVBgNVBAoTDm5ld3ZpcnR1YWxvcmdz
MB4XDTE1MTAwMjA1MDcwMVoXDTIwMDkzMDA1MDcwMVowgZsxIDAeBgNVBAMTF2lt
YXAubmV3dmlydHVhbG9yZ3MubmV0MQswCQYDVQQIEwJPTjELMAkGA1UEBhMCQ0Ex
LDAqBgkqhkiG9w0BCQEWHWhvc3RtYXN0ZXJAbmV3dmlydHVhbG9yZ3MubmV0MRcw
FQYDVQQKEw5uZXd2aXJ0dWFsb3JnczEWMBQGA1UECxMNSVQgRGVwYXJ0bWVudDCB
nzANBgkqhkiG9w0BAQEFAAOBjQAwgYkCgYEApBvVJzpvOqzau7YB0sAlDHRGatzg
MzJab4iCrhTj8PQ0HDp3tIboHG412XSCOmh3qT7Gql0UAsAukBr0SL9qjHWh2hi2
smcsDkbZKY7+/O9nP4cbxsqksAqTZc5iQLkBBQ67ZQTmdcs6WN5+FLiWVD0R1YDM
09MYrwmyygoNimcCAwEAAaMgMB4wCQYDVR0TBAIwADARBglghkgBhvhCAQEEBAMC
BkAwDQYJKoZIhvcNAQEFBQADggEBAC8GQ7BJ8V1D3WXBJCHQywUPhMOprUzqfaFF
f7PsaTs8OyINXV5BojOLdW4pCI8bqDKkO1oid29ljV4bqLHmtJrLAUpx98GDpg47
KFz4v1kL83zcn4RAE7L6CoD+wb2qGQBQfvNqgYvh5N5cM7YSgSOTc+L7kCtduMtT
dcrlIMpoyJnebHWlJa3bdL55HSBcETN44RBDGaoWmg/+aXXB8rjjIQIT3LEm1XfL
ovSLUetiskIieM/2Zr3B2yvkIm/ZGkeE375q/8/zCNb+s/VY1gmUnW6YjvDVe8uY
QICFZUct/51dMKDp+hadQYW5xmdYu3xIHYz0/LhzzBODNQSDr1A=
-----END CERTIFICATE-----
