Certificate:
    Data:
        Version: 3 (0x2)
        Serial Number: 4 (0x4)
    Signature Algorithm: sha1WithRSAEncryption
        Issuer: CN=NEWVIRTUALORGS Internal Root Certificate Authority, ST=ON, C=CA/emailAddress=hostmaster@newvirtualorgs.net, O=newvirtualorgs
        Validity
            Not Before: Oct  2 05:07:02 2015 GMT
            Not After : Sep 30 05:07:02 2020 GMT
        Subject: CN=smtp.newvirtualorgs.net, ST=ON, C=CA/emailAddress=hostmaster@newvirtualorgs.net, O=newvirtualorgs, OU=IT Department
        Subject Public Key Info:
            Public Key Algorithm: rsaEncryption
                Public-Key: (1024 bit)
                Modulus:
                    00:ea:9d:61:bf:75:48:29:88:b8:57:6b:b3:46:12:
                    96:b6:b7:b5:d4:79:62:65:58:f8:57:42:8b:57:4d:
                    0b:0a:47:81:11:97:49:ea:15:c7:34:de:18:d4:0b:
                    43:65:d0:76:8b:08:58:ff:b0:8c:bd:9c:9c:d2:d9:
                    9f:9c:db:4e:33:70:c5:41:b5:db:d7:63:da:7c:52:
                    db:a8:99:ae:ab:fe:26:d9:ee:a8:6e:9f:9d:36:24:
                    98:5e:63:e0:75:72:16:4f:cd:7a:fd:37:61:c9:d0:
                    e3:c6:cd:f9:3c:bd:14:2c:f4:6c:8e:e5:bd:4b:1c:
                    a4:1b:4c:55:78:64:1c:ce:39
                Exponent: 65537 (0x10001)
        X509v3 extensions:
            X509v3 Basic Constraints: 
                CA:FALSE
            Netscape Cert Type: 
                SSL Server
    Signature Algorithm: sha1WithRSAEncryption
         77:89:41:7b:ad:b8:79:89:6f:9a:27:96:08:aa:bd:d6:c1:16:
         79:3c:4f:74:35:0e:09:85:b3:e4:03:a5:51:4d:a2:5b:44:c3:
         f4:e5:d0:6d:bb:6b:15:31:55:c7:d5:9d:d7:8a:bb:11:00:8a:
         03:8c:80:a1:58:46:ad:d0:7e:bb:1c:72:93:97:aa:d5:07:8a:
         72:26:07:0f:62:4d:7b:7f:e2:84:8d:6f:49:e1:5a:dc:fb:52:
         20:f3:95:d9:2f:4a:fe:2b:98:51:e5:8c:0a:8b:ba:27:52:0f:
         75:f4:2c:ac:6c:c1:37:44:a4:2a:e1:21:95:9b:de:87:11:e5:
         2e:90:47:41:22:1f:44:f6:c1:50:b5:37:16:f2:cb:90:a8:3a:
         35:45:9a:f9:d0:83:75:28:ee:1c:bd:9c:9e:02:11:40:6f:d0:
         4d:6a:a0:d4:fa:15:87:3b:bd:dd:73:8a:37:ba:4c:7d:11:ec:
         d9:08:8d:57:ac:21:b2:58:b0:26:5f:2f:d4:53:28:da:b0:04:
         3b:37:a0:65:f0:67:89:59:aa:4c:1a:03:09:58:87:6b:72:57:
         4e:b4:88:24:db:8e:44:54:d9:1c:2c:fb:65:a7:20:be:a8:92:
         27:e4:ed:04:5e:99:47:39:2d:52:e2:2a:ed:86:a8:91:de:fe:
         a7:a1:60:30
-----BEGIN CERTIFICATE-----
MIIDUjCCAjqgAwIBAgIBBDANBgkqhkiG9w0BAQUFADCBnjE7MDkGA1UEAxMyTkVX
VklSVFVBTE9SR1MgSW50ZXJuYWwgUm9vdCBDZXJ0aWZpY2F0ZSBBdXRob3JpdHkx
CzAJBgNVBAgTAk9OMQswCQYDVQQGEwJDQTEsMCoGCSqGSIb3DQEJARYdaG9zdG1h
c3RlckBuZXd2aXJ0dWFsb3Jncy5uZXQxFzAVBgNVBAoTDm5ld3ZpcnR1YWxvcmdz
MB4XDTE1MTAwMjA1MDcwMloXDTIwMDkzMDA1MDcwMlowgZsxIDAeBgNVBAMTF3Nt
dHAubmV3dmlydHVhbG9yZ3MubmV0MQswCQYDVQQIEwJPTjELMAkGA1UEBhMCQ0Ex
LDAqBgkqhkiG9w0BCQEWHWhvc3RtYXN0ZXJAbmV3dmlydHVhbG9yZ3MubmV0MRcw
FQYDVQQKEw5uZXd2aXJ0dWFsb3JnczEWMBQGA1UECxMNSVQgRGVwYXJ0bWVudDCB
nzANBgkqhkiG9w0BAQEFAAOBjQAwgYkCgYEA6p1hv3VIKYi4V2uzRhKWtre11Hli
ZVj4V0KLV00LCkeBEZdJ6hXHNN4Y1AtDZdB2iwhY/7CMvZyc0tmfnNtOM3DFQbXb
12PafFLbqJmuq/4m2e6obp+dNiSYXmPgdXIWT816/TdhydDjxs35PL0ULPRsjuW9
SxykG0xVeGQczjkCAwEAAaMgMB4wCQYDVR0TBAIwADARBglghkgBhvhCAQEEBAMC
BkAwDQYJKoZIhvcNAQEFBQADggEBAHeJQXutuHmJb5onlgiqvdbBFnk8T3Q1DgmF
s+QDpVFNoltEw/Tl0G27axUxVcfVndeKuxEAigOMgKFYRq3QfrsccpOXqtUHinIm
Bw9iTXt/4oSNb0nhWtz7UiDzldkvSv4rmFHljAqLuidSD3X0LKxswTdEpCrhIZWb
3ocR5S6QR0EiH0T2wVC1Nxbyy5CoOjVFmvnQg3Uo7hy9nJ4CEUBv0E1qoNT6FYc7
vd1zije6TH0R7NkIjVesIbJYsCZfL9RTKNqwBDs3oGXwZ4lZqkwaAwlYh2tyV060
iCTbjkRU2Rws+2WnIL6okifk7QRemUc5LVLiKu2GqJHe/qehYDA=
-----END CERTIFICATE-----
