Certificate:
    Data:
        Version: 3 (0x2)
        Serial Number: 5 (0x5)
    Signature Algorithm: sha1WithRSAEncryption
        Issuer: CN=NEWVIRTUALORGS Internal Root Certificate Authority, ST=ON, C=CA/emailAddress=hostmaster@newvirtualorgs.net, O=newvirtualorgs
        Validity
            Not Before: Oct  2 05:07:03 2015 GMT
            Not After : Sep 30 05:07:03 2020 GMT
        Subject: CN=dkim.newvirtualorgs.net, ST=ON, C=CA/emailAddress=hostmaster@newvirtualorgs.net, O=newvirtualorgs, OU=IT Department
        Subject Public Key Info:
            Public Key Algorithm: rsaEncryption
                Public-Key: (1024 bit)
                Modulus:
                    00:d4:b4:a5:a4:f2:03:d5:25:23:da:66:23:17:a2:
                    b9:df:09:6a:b5:1d:cb:20:7b:c6:1d:d5:7a:10:84:
                    87:f2:c1:f2:58:2a:80:e9:73:b3:30:66:6c:74:b6:
                    98:1d:70:c4:fc:8a:c4:6e:2c:03:49:4a:bd:a9:a2:
                    a2:b7:16:e3:de:aa:7c:75:e2:7f:72:05:7c:a5:a5:
                    cd:7c:51:89:5c:f6:bb:1c:68:1b:4a:83:00:5a:3a:
                    d0:1e:10:51:f2:bb:4b:7f:0d:42:0b:f7:12:36:36:
                    f9:87:84:76:69:d8:a7:f2:4d:0d:6a:63:dc:84:51:
                    c1:44:b0:0f:4f:f7:4d:a6:e9
                Exponent: 65537 (0x10001)
        X509v3 extensions:
            X509v3 Basic Constraints: 
                CA:FALSE
            Netscape Cert Type: 
                SSL Server
    Signature Algorithm: sha1WithRSAEncryption
         ab:3a:ab:57:74:a7:2a:c6:00:33:ce:85:fc:63:ce:57:ce:65:
         f5:ad:75:32:fd:9c:93:f6:16:a1:09:73:6a:da:cd:9c:a9:4e:
         a3:ae:96:b2:7a:6d:09:07:55:ff:82:4b:f4:3b:4e:32:b5:27:
         e9:23:29:34:c8:88:b9:c5:d3:aa:04:e0:f5:83:45:b5:72:22:
         da:53:44:dd:55:81:58:f0:93:6d:2b:99:47:8f:15:8d:7e:33:
         5f:72:f5:17:26:01:f7:4d:84:5b:5a:b5:20:35:c7:68:c7:c7:
         45:19:e3:c3:15:b1:8d:08:d8:cf:e9:d4:3c:b1:d9:6a:32:1d:
         df:39:f4:6c:c0:6c:3f:de:f8:13:f7:e1:2b:ac:b6:a4:c0:19:
         eb:30:88:ec:29:c9:6c:40:3f:a3:07:5f:8c:66:00:95:c7:79:
         e8:f5:ea:d3:72:a6:5a:ea:34:b3:55:46:e9:e5:27:20:ff:35:
         9f:d5:34:9d:52:8d:ee:01:4e:3f:1f:1e:a3:36:9f:ff:cb:95:
         9e:93:c3:bb:bf:a0:02:01:42:2f:23:69:3d:82:e1:28:3a:01:
         d8:74:4b:e1:82:6a:b2:bf:79:0d:c0:c4:c3:3c:e1:22:5d:bb:
         12:82:f7:10:65:fb:d9:cc:1f:69:9e:ae:6b:27:2e:63:01:f4:
         ad:19:78:5b
-----BEGIN CERTIFICATE-----
MIIDUjCCAjqgAwIBAgIBBTANBgkqhkiG9w0BAQUFADCBnjE7MDkGA1UEAxMyTkVX
VklSVFVBTE9SR1MgSW50ZXJuYWwgUm9vdCBDZXJ0aWZpY2F0ZSBBdXRob3JpdHkx
CzAJBgNVBAgTAk9OMQswCQYDVQQGEwJDQTEsMCoGCSqGSIb3DQEJARYdaG9zdG1h
c3RlckBuZXd2aXJ0dWFsb3Jncy5uZXQxFzAVBgNVBAoTDm5ld3ZpcnR1YWxvcmdz
MB4XDTE1MTAwMjA1MDcwM1oXDTIwMDkzMDA1MDcwM1owgZsxIDAeBgNVBAMTF2Rr
aW0ubmV3dmlydHVhbG9yZ3MubmV0MQswCQYDVQQIEwJPTjELMAkGA1UEBhMCQ0Ex
LDAqBgkqhkiG9w0BCQEWHWhvc3RtYXN0ZXJAbmV3dmlydHVhbG9yZ3MubmV0MRcw
FQYDVQQKEw5uZXd2aXJ0dWFsb3JnczEWMBQGA1UECxMNSVQgRGVwYXJ0bWVudDCB
nzANBgkqhkiG9w0BAQEFAAOBjQAwgYkCgYEA1LSlpPID1SUj2mYjF6K53wlqtR3L
IHvGHdV6EISH8sHyWCqA6XOzMGZsdLaYHXDE/IrEbiwDSUq9qaKitxbj3qp8deJ/
cgV8paXNfFGJXPa7HGgbSoMAWjrQHhBR8rtLfw1CC/cSNjb5h4R2adin8k0NamPc
hFHBRLAPT/dNpukCAwEAAaMgMB4wCQYDVR0TBAIwADARBglghkgBhvhCAQEEBAMC
BkAwDQYJKoZIhvcNAQEFBQADggEBAKs6q1d0pyrGADPOhfxjzlfOZfWtdTL9nJP2
FqEJc2razZypTqOulrJ6bQkHVf+CS/Q7TjK1J+kjKTTIiLnF06oE4PWDRbVyItpT
RN1VgVjwk20rmUePFY1+M19y9RcmAfdNhFtatSA1x2jHx0UZ48MVsY0I2M/p1Dyx
2WoyHd859GzAbD/e+BP34SustqTAGeswiOwpyWxAP6MHX4xmAJXHeej16tNyplrq
NLNVRunlJyD/NZ/VNJ1Sje4BTj8fHqM2n//LlZ6Tw7u/oAIBQi8jaT2C4Sg6Adh0
S+GCarK/eQ3AxMM84SJduxKC9xBl+9nMH2mermsnLmMB9K0ZeFs=
-----END CERTIFICATE-----
