Certificate:
    Data:
        Version: 3 (0x2)
        Serial Number: 7 (0x7)
    Signature Algorithm: sha1WithRSAEncryption
        Issuer: CN=NEWVIRTUALORGS Internal Root Certificate Authority, ST=ON, C=CA/emailAddress=hostmaster@newvirtualorgs.net, O=newvirtualorgs
        Validity
            Not Before: Oct  2 05:07:05 2015 GMT
            Not After : Sep 30 05:07:05 2020 GMT
        Subject: CN=xmpp.newvirtualorgs.net, ST=ON, C=CA/emailAddress=hostmaster@newvirtualorgs.net, O=newvirtualorgs, OU=IT Department
        Subject Public Key Info:
            Public Key Algorithm: dsaEncryption
                pub: 
                    16:8c:cc:0c:b2:71:4f:40:b7:1b:e1:0e:54:62:18:
                    58:e0:b2:c9:61:47:e4:d1:57:db:12:54:fc:59:66:
                    47:06:69:27:cc:c3:5a:fa:b4:69:9b:18:c6:03:e6:
                    04:36:74:39:97:1d:85:97:39:3e:6f:78:ce:bc:44:
                    f0:d6:9b:5c:c8:65:1b:ec:a7:8f:51:91:d2:7e:a1:
                    ad:48:d4:eb:a6:98:93:08:d0:20:22:16:04:bc:54:
                    31:d2:96:d3:82:fb:1e:29:6e:39:1a:9c:4e:ee:22:
                    c1:70:9a:d5:02:76:a7:51:be:8f:0f:49:87:6a:5b:
                    b0:93:10:bf:d6:cb:cc:ff
                P:   
                    00:94:0c:a3:b1:fa:f1:86:7f:e6:fe:1e:94:36:6a:
                    d5:2e:3c:6e:69:f6:f0:99:1b:ba:45:42:d3:1d:c9:
                    ac:b3:61:33:ab:f7:b8:01:95:8b:4c:4b:02:78:08:
                    57:06:05:5f:8a:6a:eb:79:7c:2e:f1:4e:ad:6d:a8:
                    1c:bd:27:37:b7:67:0c:f1:53:77:2e:b7:3d:f8:33:
                    30:2e:06:1e:18:ec:d7:aa:19:22:85:c1:de:be:6f:
                    9f:73:6e:ce:33:08:ad:44:2e:db:96:21:68:4c:a7:
                    34:2e:d6:2c:69:ea:0d:a6:f5:d9:06:a2:41:3a:2d:
                    31:8f:19:42:88:37:00:60:45
                Q:   
                    00:8c:74:71:8f:c9:0b:4d:fb:78:60:e2:41:e5:41:
                    28:70:7d:e7:c4:6d
                G:   
                    1d:77:71:9f:f0:c3:d6:3b:39:95:17:d9:ba:1f:62:
                    2a:cb:38:c1:5d:32:50:99:f3:82:ec:7f:81:26:8d:
                    14:36:ad:5e:b2:f9:da:71:d8:08:f5:29:f8:82:d2:
                    09:c4:bd:37:45:26:de:40:42:cb:d6:6b:61:3a:32:
                    52:19:5a:9e:54:f9:8d:74:ea:be:06:7c:bb:cb:8e:
                    40:5e:cd:26:69:7a:a1:60:7a:6b:91:83:f2:20:f8:
                    eb:00:ef:9d:ff:c5:25:d9:36:76:4f:b1:c7:74:28:
                    8c:98:24:f5:65:8d:13:fc:0c:60:31:07:bf:24:5e:
                    fa:ac:cb:e3:4d:9c:fc:2d
        X509v3 extensions:
            X509v3 Basic Constraints: 
                CA:FALSE
            Netscape Cert Type: 
                SSL Server
    Signature Algorithm: sha1WithRSAEncryption
         9c:34:a9:b3:96:6e:73:91:d7:56:80:90:43:d4:2c:65:52:8c:
         04:1d:b8:60:6d:1c:05:79:0b:67:a1:60:ac:bf:d0:45:3a:0b:
         ef:1b:21:80:fd:a0:29:1e:18:58:b9:ee:74:7f:0d:67:18:e9:
         b6:ba:c2:e1:94:65:bc:ab:df:1e:c9:b7:14:93:88:42:a1:e3:
         b3:cd:01:97:2b:cb:e2:ca:84:c0:5c:a0:a9:54:06:74:76:c1:
         64:71:20:e5:60:5e:9a:c2:b7:05:4e:ee:9a:70:a9:e6:7e:80:
         e1:bb:c8:df:db:1c:ab:c8:0d:df:7a:d9:ee:9f:5e:47:a8:af:
         04:a5:9d:d1:48:af:67:c9:5c:f6:9c:97:4c:24:50:d7:30:e5:
         51:b2:13:de:bf:0e:3b:70:91:f3:d6:0a:63:e1:f2:f5:31:65:
         84:93:8e:f0:70:e2:20:a7:ad:f1:33:ce:42:4f:68:93:dd:b1:
         3b:c5:7d:4c:e0:c0:42:d8:0e:15:00:f7:df:df:3b:f4:76:76:
         e4:d7:9f:ff:ab:60:2a:73:9d:0f:68:05:fe:b8:75:1c:8f:0c:
         f4:60:fe:41:c7:90:d3:bc:0e:ac:e6:9f:04:d4:3b:16:09:d4:
         fc:f6:98:0d:44:08:de:b3:c2:43:6c:56:cc:49:8b:4d:78:b9:
         49:a2:b3:b8
-----BEGIN CERTIFICATE-----
MIIEajCCA1KgAwIBAgIBBzANBgkqhkiG9w0BAQUFADCBnjE7MDkGA1UEAxMyTkVX
VklSVFVBTE9SR1MgSW50ZXJuYWwgUm9vdCBDZXJ0aWZpY2F0ZSBBdXRob3JpdHkx
CzAJBgNVBAgTAk9OMQswCQYDVQQGEwJDQTEsMCoGCSqGSIb3DQEJARYdaG9zdG1h
c3RlckBuZXd2aXJ0dWFsb3Jncy5uZXQxFzAVBgNVBAoTDm5ld3ZpcnR1YWxvcmdz
MB4XDTE1MTAwMjA1MDcwNVoXDTIwMDkzMDA1MDcwNVowgZsxIDAeBgNVBAMTF3ht
cHAubmV3dmlydHVhbG9yZ3MubmV0MQswCQYDVQQIEwJPTjELMAkGA1UEBhMCQ0Ex
LDAqBgkqhkiG9w0BCQEWHWhvc3RtYXN0ZXJAbmV3dmlydHVhbG9yZ3MubmV0MRcw
FQYDVQQKEw5uZXd2aXJ0dWFsb3JnczEWMBQGA1UECxMNSVQgRGVwYXJ0bWVudDCC
AbYwggErBgcqhkjOOAQBMIIBHgKBgQCUDKOx+vGGf+b+HpQ2atUuPG5p9vCZG7pF
QtMdyayzYTOr97gBlYtMSwJ4CFcGBV+Kaut5fC7xTq1tqBy9Jze3ZwzxU3cutz34
MzAuBh4Y7NeqGSKFwd6+b59zbs4zCK1ELtuWIWhMpzQu1ixp6g2m9dkGokE6LTGP
GUKINwBgRQIVAIx0cY/JC037eGDiQeVBKHB958RtAoGAHXdxn/DD1js5lRfZuh9i
Kss4wV0yUJnzgux/gSaNFDatXrL52nHYCPUp+ILSCcS9N0Um3kBCy9ZrYToyUhla
nlT5jXTqvgZ8u8uOQF7NJml6oWB6a5GD8iD46wDvnf/FJdk2dk+xx3QojJgk9WWN
E/wMYDEHvyRe+qzL402c/C0DgYQAAoGAFozMDLJxT0C3G+EOVGIYWOCyyWFH5NFX
2xJU/FlmRwZpJ8zDWvq0aZsYxgPmBDZ0OZcdhZc5Pm94zrxE8NabXMhlG+ynj1GR
0n6hrUjU66aYkwjQICIWBLxUMdKW04L7HiluORqcTu4iwXCa1QJ2p1G+jw9Jh2pb
sJMQv9bLzP+jIDAeMAkGA1UdEwQCMAAwEQYJYIZIAYb4QgEBBAQDAgZAMA0GCSqG
SIb3DQEBBQUAA4IBAQCcNKmzlm5zkddWgJBD1CxlUowEHbhgbRwFeQtnoWCsv9BF
OgvvGyGA/aApHhhYue50fw1nGOm2usLhlGW8q98eybcUk4hCoeOzzQGXK8viyoTA
XKCpVAZ0dsFkcSDlYF6awrcFTu6acKnmfoDhu8jf2xyryA3fetnun15HqK8EpZ3R
SK9nyVz2nJdMJFDXMOVRshPevw47cJHz1gpj4fL1MWWEk47wcOIgp63xM85CT2iT
3bE7xX1M4MBC2A4VAPff3zv0dnbk15//q2Aqc50PaAX+uHUcjwz0YP5Bx5DTvA6s
5p8E1DsWCdT89pgNRAjes8JDbFbMSYtNeLlJorO4
-----END CERTIFICATE-----
