Certificate:
    Data:
        Version: 3 (0x2)
        Serial Number: 2 (0x2)
    Signature Algorithm: sha1WithRSAEncryption
        Issuer: CN=NEWVIRTUALORGS Internal Root Certificate Authority, ST=ON, C=CA/emailAddress=hostmaster@newvirtualorgs.net, O=newvirtualorgs
        Validity
            Not Before: Oct  2 05:06:59 2015 GMT
            Not After : Sep 30 05:06:59 2020 GMT
        Subject: CN=aphrodite.newvirtualorgs.net, ST=ON, C=CA/emailAddress=hostmaster@newvirtualorgs.net, O=newvirtualorgs, OU=IT Department
        Subject Public Key Info:
            Public Key Algorithm: rsaEncryption
                Public-Key: (1024 bit)
                Modulus:
                    00:9c:c2:78:aa:af:bf:1b:4b:62:97:46:85:60:b6:
                    e0:f4:7c:e7:44:65:fa:c0:a7:f4:fe:33:f9:9f:9d:
                    a7:31:f3:96:47:83:4c:f7:5a:f5:72:a7:5d:88:39:
                    b4:29:fa:c6:15:59:70:59:00:3c:a9:e0:6a:e2:ba:
                    9c:16:bb:57:c4:34:0e:e3:94:92:25:0e:01:fd:8d:
                    b4:d6:b1:c1:e7:aa:3b:7e:4d:b4:24:3a:ba:78:f6:
                    f8:97:f4:b7:63:bc:b3:9e:92:0a:3b:3b:32:72:1b:
                    fc:ab:44:4f:e0:0c:c8:bb:23:ce:94:ab:b8:69:42:
                    7c:fb:bc:60:1c:1e:ef:c9:17
                Exponent: 65537 (0x10001)
        X509v3 extensions:
            X509v3 Basic Constraints: 
                CA:FALSE
            Netscape Cert Type: 
                SSL Server
    Signature Algorithm: sha1WithRSAEncryption
         6f:2b:e8:69:20:68:92:06:90:52:d3:fa:b6:01:89:28:ed:ac:
         0e:db:a7:74:dc:3c:09:b5:df:b3:69:86:5a:68:df:37:d7:e9:
         3e:11:0a:09:c6:ee:3c:ea:a3:07:cf:84:74:87:68:be:f0:76:
         9a:94:4f:bc:ee:26:7a:99:f4:10:2e:23:2b:3b:fd:6d:83:b2:
         6b:c6:f6:68:a4:e5:d1:3b:2f:87:24:7a:38:a4:5b:55:30:e4:
         5d:63:26:57:e2:2c:d6:b7:5d:8a:ac:3f:ae:46:06:a8:7b:70:
         20:99:d3:f1:7a:15:26:8b:cd:c4:7a:a0:95:96:7f:58:d1:ee:
         e4:f2:51:4b:82:50:e1:0d:cf:bf:cb:da:02:2b:9c:a3:11:a7:
         dc:49:c2:2b:cd:8a:9e:a0:ee:83:1c:92:cc:a6:e8:f1:78:dc:
         55:5b:cf:95:49:2d:50:78:34:26:5b:fb:33:41:e2:ab:7f:bf:
         ed:c1:58:3a:ec:3b:e9:bb:46:c9:ed:05:7b:19:ff:6e:b2:67:
         9f:8e:0a:5d:65:b2:e0:6f:54:b8:21:b5:e8:b8:33:79:a0:c8:
         53:45:2e:c9:62:1d:d2:ce:72:92:0f:23:30:50:68:10:23:0f:
         e7:55:73:fd:9c:9a:30:52:5c:22:be:73:65:01:c9:5c:2b:d5:
         83:0a:e3:6f
-----BEGIN CERTIFICATE-----
MIIDVzCCAj+gAwIBAgIBAjANBgkqhkiG9w0BAQUFADCBnjE7MDkGA1UEAxMyTkVX
VklSVFVBTE9SR1MgSW50ZXJuYWwgUm9vdCBDZXJ0aWZpY2F0ZSBBdXRob3JpdHkx
CzAJBgNVBAgTAk9OMQswCQYDVQQGEwJDQTEsMCoGCSqGSIb3DQEJARYdaG9zdG1h
c3RlckBuZXd2aXJ0dWFsb3Jncy5uZXQxFzAVBgNVBAoTDm5ld3ZpcnR1YWxvcmdz
MB4XDTE1MTAwMjA1MDY1OVoXDTIwMDkzMDA1MDY1OVowgaAxJTAjBgNVBAMTHGFw
aHJvZGl0ZS5uZXd2aXJ0dWFsb3Jncy5uZXQxCzAJBgNVBAgTAk9OMQswCQYDVQQG
EwJDQTEsMCoGCSqGSIb3DQEJARYdaG9zdG1hc3RlckBuZXd2aXJ0dWFsb3Jncy5u
ZXQxFzAVBgNVBAoTDm5ld3ZpcnR1YWxvcmdzMRYwFAYDVQQLEw1JVCBEZXBhcnRt
ZW50MIGfMA0GCSqGSIb3DQEBAQUAA4GNADCBiQKBgQCcwniqr78bS2KXRoVgtuD0
fOdEZfrAp/T+M/mfnacx85ZHg0z3WvVyp12IObQp+sYVWXBZADyp4GriupwWu1fE
NA7jlJIlDgH9jbTWscHnqjt+TbQkOrp49viX9LdjvLOekgo7OzJyG/yrRE/gDMi7
I86Uq7hpQnz7vGAcHu/JFwIDAQABoyAwHjAJBgNVHRMEAjAAMBEGCWCGSAGG+EIB
AQQEAwIGQDANBgkqhkiG9w0BAQUFAAOCAQEAbyvoaSBokgaQUtP6tgGJKO2sDtun
dNw8CbXfs2mGWmjfN9fpPhEKCcbuPOqjB8+EdIdovvB2mpRPvO4mepn0EC4jKzv9
bYOya8b2aKTl0TsvhyR6OKRbVTDkXWMmV+Is1rddiqw/rkYGqHtwIJnT8XoVJovN
xHqglZZ/WNHu5PJRS4JQ4Q3Pv8vaAiucoxGn3EnCK82KnqDugxySzKbo8XjcVVvP
lUktUHg0Jlv7M0Hiq3+/7cFYOuw76btGye0Fexn/brJnn44KXWWy4G9UuCG16Lgz
eaDIU0UuyWId0s5ykg8jMFBoECMP51Vz/ZyaMFJcIr5zZQHJXCvVgwrjbw==
-----END CERTIFICATE-----
