Certificate:
    Data:
        Version: 3 (0x2)
        Serial Number: 6 (0x6)
    Signature Algorithm: sha1WithRSAEncryption
        Issuer: CN=NEWVIRTUALORGS Internal Root Certificate Authority, ST=ON, C=CA/emailAddress=hostmaster@newvirtualorgs.net, O=newvirtualorgs
        Validity
            Not Before: Oct  2 05:07:04 2015 GMT
            Not After : Sep 30 05:07:04 2020 GMT
        Subject: CN=xmpp.newvirtualorgs.net, ST=ON, C=CA/emailAddress=hostmaster@newvirtualorgs.net, O=newvirtualorgs, OU=IT Department
        Subject Public Key Info:
            Public Key Algorithm: rsaEncryption
                Public-Key: (1024 bit)
                Modulus:
                    00:c1:de:55:39:ad:5c:cd:d0:8f:61:23:d0:29:d9:
                    c0:54:d0:c2:f4:8d:07:10:bd:96:1c:0c:09:f8:c4:
                    bf:16:9b:4a:a9:56:82:b8:33:7e:0b:ad:8c:42:63:
                    08:d3:2a:07:1a:b6:3d:46:5d:d0:84:ab:ef:55:59:
                    5e:bd:88:bd:83:7e:70:10:a9:71:91:a5:dd:7a:ab:
                    9f:86:3b:d4:97:91:ad:74:ae:5b:27:9f:94:ec:ba:
                    f1:84:d2:3a:6f:1c:b6:47:18:11:2e:37:f8:45:a7:
                    b5:ee:d5:64:03:c6:63:c0:65:06:b2:c4:94:46:2a:
                    e1:8c:60:26:66:2a:27:67:6d
                Exponent: 65537 (0x10001)
        X509v3 extensions:
            X509v3 Basic Constraints: 
                CA:FALSE
            Netscape Cert Type: 
                SSL Server
    Signature Algorithm: sha1WithRSAEncryption
         1f:84:6b:20:c2:11:06:75:46:6d:65:c2:59:c5:72:96:91:ff:
         ca:69:3a:d6:85:79:29:bf:96:c2:74:8a:49:87:06:7e:3c:d2:
         10:5c:1b:b1:4e:02:4e:05:04:20:5e:df:34:a2:af:c0:64:14:
         8f:6c:ed:47:23:24:01:e6:d5:06:f4:91:da:ce:1c:6d:3c:17:
         e1:84:88:a1:bc:22:e8:fe:bc:c4:cb:8d:47:fa:04:81:8d:83:
         76:92:05:d0:e2:1b:a9:66:20:e4:2a:50:d6:01:92:b7:8a:54:
         ec:23:54:17:32:17:f0:89:b5:3b:fe:78:d0:67:39:19:e6:46:
         7c:ac:4c:d4:50:a4:75:1a:36:3c:33:00:b0:94:0a:59:21:f7:
         85:c7:02:97:47:93:8d:39:c8:09:46:9e:07:66:2e:45:70:63:
         96:e5:5d:16:57:0c:ce:11:85:15:a3:0e:88:cc:cc:f1:34:51:
         63:7d:4e:c3:70:17:b9:31:88:af:4a:5d:fa:81:5d:e2:b9:a0:
         29:d5:c7:81:8a:5a:41:ed:6d:72:bf:8b:56:83:92:a8:a6:57:
         cb:d3:62:5d:a7:53:09:ad:33:98:73:ee:4f:59:54:57:6c:eb:
         f3:32:5f:a2:ba:30:39:89:86:f4:e5:bb:74:b2:58:19:a3:78:
         7c:13:5d:83
-----BEGIN CERTIFICATE-----
MIIDUjCCAjqgAwIBAgIBBjANBgkqhkiG9w0BAQUFADCBnjE7MDkGA1UEAxMyTkVX
VklSVFVBTE9SR1MgSW50ZXJuYWwgUm9vdCBDZXJ0aWZpY2F0ZSBBdXRob3JpdHkx
CzAJBgNVBAgTAk9OMQswCQYDVQQGEwJDQTEsMCoGCSqGSIb3DQEJARYdaG9zdG1h
c3RlckBuZXd2aXJ0dWFsb3Jncy5uZXQxFzAVBgNVBAoTDm5ld3ZpcnR1YWxvcmdz
MB4XDTE1MTAwMjA1MDcwNFoXDTIwMDkzMDA1MDcwNFowgZsxIDAeBgNVBAMTF3ht
cHAubmV3dmlydHVhbG9yZ3MubmV0MQswCQYDVQQIEwJPTjELMAkGA1UEBhMCQ0Ex
LDAqBgkqhkiG9w0BCQEWHWhvc3RtYXN0ZXJAbmV3dmlydHVhbG9yZ3MubmV0MRcw
FQYDVQQKEw5uZXd2aXJ0dWFsb3JnczEWMBQGA1UECxMNSVQgRGVwYXJ0bWVudDCB
nzANBgkqhkiG9w0BAQEFAAOBjQAwgYkCgYEAwd5VOa1czdCPYSPQKdnAVNDC9I0H
EL2WHAwJ+MS/FptKqVaCuDN+C62MQmMI0yoHGrY9Rl3QhKvvVVlevYi9g35wEKlx
kaXdequfhjvUl5GtdK5bJ5+U7LrxhNI6bxy2RxgRLjf4Rae17tVkA8ZjwGUGssSU
RirhjGAmZionZ20CAwEAAaMgMB4wCQYDVR0TBAIwADARBglghkgBhvhCAQEEBAMC
BkAwDQYJKoZIhvcNAQEFBQADggEBAB+EayDCEQZ1Rm1lwlnFcpaR/8ppOtaFeSm/
lsJ0ikmHBn480hBcG7FOAk4FBCBe3zSir8BkFI9s7UcjJAHm1Qb0kdrOHG08F+GE
iKG8Iuj+vMTLjUf6BIGNg3aSBdDiG6lmIOQqUNYBkreKVOwjVBcyF/CJtTv+eNBn
ORnmRnysTNRQpHUaNjwzALCUClkh94XHApdHk405yAlGngdmLkVwY5blXRZXDM4R
hRWjDojMzPE0UWN9TsNwF7kxiK9KXfqBXeK5oCnVx4GKWkHtbXK/i1aDkqimV8vT
Yl2nUwmtM5hz7k9ZVFds6/MyX6K6MDmJhvTlu3SyWBmjeHwTXYM=
-----END CERTIFICATE-----
